; Function Attrs: mustprogress nofree norecurse nosync nounwind willreturn memory(read, inaccessiblemem: none) uwtable
define hidden noundef i32 @_ZN9Bytecodes21raw_special_length_atEPhS0_(ptr noundef readonly %0, ptr noundef readnone %1) local_unnamed_addr #3 align 2 {
  %3 = load i8, ptr %0, align 1
  %4 = icmp eq i8 %3, -54
  br i1 %4, label %8, label %5

5:                                                ; preds = %2
  %6 = zext i8 %3 to i32
  %7 = tail call noundef i32 @_ZN9Bytecodes17special_length_atENS_4CodeEPhS1_(i32 noundef %6, ptr noundef nonnull %0, ptr noundef %1)
  br label %8

8:                                                ; preds = %2, %5
  %.0 = phi i32 [ %7, %5 ], [ 1, %2 ]
  ret i32 %.0
}